; Function Attrs: mustprogress nofree nounwind willreturn memory(inaccessiblemem: readwrite) uwtable
define noalias noundef ptr @PMIx_Pdata_create(i64 noundef %0) local_unnamed_addr #10 {
  %2 = icmp eq i64 %0, 0
  br i1 %2, label %pmix_bfrops_base_tma_pdata_create.exit, label %3

3:                                                ; preds = %1
  %4 = mul i64 %0, 808
  %calloc.i = tail call ptr @calloc(i64 1, i64 %4)
  br label %pmix_bfrops_base_tma_pdata_create.exit

pmix_bfrops_base_tma_pdata_create.exit:           ; preds = %1, %3
  %.011.i = phi ptr [ null, %1 ], [ %calloc.i, %3 ]
  ret ptr %.011.i
}